target datalayout = "e-m:e-p270:32:32-p271:32:32-p272:64:64-i64:64-i128:128-f80:128-n8:16:32:64-S128"
target triple = "x86_64-pc-linux-gnu"

%struct.rsa_st = type { i32, ptr, i32, ptr, ptr, ptr, ptr, ptr, ptr, ptr, ptr, ptr, ptr, %struct.rsa_pss_params_30_st, ptr, ptr, %struct.crypto_ex_data_st, %struct.CRYPTO_REF_COUNT, i32, ptr, ptr, ptr, ptr, ptr, ptr, i32 }
%struct.rsa_pss_params_30_st = type { i32, %struct.anon, i32, i32 }
%struct.anon = type { i32, i32 }
%struct.crypto_ex_data_st = type { ptr, ptr }
%struct.CRYPTO_REF_COUNT = type { i32 }

; Function Attrs: nounwind uwtable
define void @RSA_blinding_off(ptr noundef %0) #0 {
  %2 = alloca ptr, align 8
  store ptr %0, ptr %2, align 8, !tbaa !3
  %3 = load ptr, ptr %2, align 8, !tbaa !3
  %4 = getelementptr inbounds nuw %struct.rsa_st, ptr %3, i32 0, i32 22
  %5 = load ptr, ptr %4, align 8, !tbaa !34
  call void @BN_BLINDING_free(ptr noundef %5)
  %6 = load ptr, ptr %2, align 8, !tbaa !3
  %7 = getelementptr inbounds nuw %struct.rsa_st, ptr %6, i32 0, i32 22
  store ptr null, ptr %7, align 8, !tbaa !34
  %8 = load ptr, ptr %2, align 8, !tbaa !3
  %9 = getelementptr inbounds nuw %struct.rsa_st, ptr %8, i32 0, i32 18
  %10 = load i32, ptr %9, align 4, !tbaa !35
  %11 = and i32 %10, -9
  store i32 %11, ptr %9, align 4, !tbaa !35
  %12 = load ptr, ptr %2, align 8, !tbaa !3
  %13 = getelementptr inbounds nuw %struct.rsa_st, ptr %12, i32 0, i32 18
  %14 = load i32, ptr %13, align 4, !tbaa !35
  %15 = or i32 %14, 128
  store i32 %15, ptr %13, align 4, !tbaa !35
  ret void
}

; Function Attrs: nounwind uwtable
define i32 @RSA_blinding_on(ptr noundef %0, ptr noundef %1) #0 {
  %3 = alloca ptr, align 8
  %4 = alloca ptr, align 8
  %5 = alloca i32, align 4
  store ptr %0, ptr %3, align 8, !tbaa !3
  store ptr %1, ptr %4, align 8, !tbaa !36
  call void @llvm.lifetime.start.p0(i64 4, ptr %5) #3
  store i32 0, ptr %5, align 4, !tbaa !24
  %6 = load ptr, ptr %3, align 8, !tbaa !3
  %7 = getelementptr inbounds nuw %struct.rsa_st, ptr %6, i32 0, i32 22
  %8 = load ptr, ptr %7, align 8, !tbaa !34
  %9 = icmp ne ptr %8, null
  br i1 %9, label %10, label %12

10:                                               ; preds = %2
  %11 = load ptr, ptr %3, align 8, !tbaa !3
  call void @RSA_blinding_off(ptr noundef %11)
  br label %12

12:                                               ; preds = %10, %2
  %13 = load ptr, ptr %3, align 8, !tbaa !3
  %14 = load ptr, ptr %4, align 8, !tbaa !36
  %15 = call ptr @RSA_setup_blinding(ptr noundef %13, ptr noundef %14)
  %16 = load ptr, ptr %3, align 8, !tbaa !3
  %17 = getelementptr inbounds nuw %struct.rsa_st, ptr %16, i32 0, i32 22
  store ptr %15, ptr %17, align 8, !tbaa !34
  %18 = load ptr, ptr %3, align 8, !tbaa !3
  %19 = getelementptr inbounds nuw %struct.rsa_st, ptr %18, i32 0, i32 22
  %20 = load ptr, ptr %19, align 8, !tbaa !34
  %21 = icmp eq ptr %20, null
  br i1 %21, label %22, label %23

22:                                               ; preds = %12
  br label %32

23:                                               ; preds = %12
  %24 = load ptr, ptr %3, align 8, !tbaa !3
  %25 = getelementptr inbounds nuw %struct.rsa_st, ptr %24, i32 0, i32 18
  %26 = load i32, ptr %25, align 4, !tbaa !35
  %27 = or i32 %26, 8
  store i32 %27, ptr %25, align 4, !tbaa !35
  %28 = load ptr, ptr %3, align 8, !tbaa !3
  %29 = getelementptr inbounds nuw %struct.rsa_st, ptr %28, i32 0, i32 18
  %30 = load i32, ptr %29, align 4, !tbaa !35
  %31 = and i32 %30, -129
  store i32 %31, ptr %29, align 4, !tbaa !35
  store i32 1, ptr %5, align 4, !tbaa !24
  br label %32

32:                                               ; preds = %23, %22
  %33 = load i32, ptr %5, align 4, !tbaa !24
  call void @llvm.lifetime.end.p0(i64 4, ptr %5) #3
  ret i32 %33
}