; Function Attrs: nounwind uwtable
define range(i32 0, 2) i32 @RSA_blinding_on(ptr noundef captures(none) %0, ptr noundef %1) local_unnamed_addr #0 {
  %3 = getelementptr inbounds nuw i8, ptr %0, i64 192
  %4 = load ptr, ptr %3, align 8, !tbaa !30
  %.not = icmp eq ptr %4, null
  br i1 %.not, label %10, label %5

5:                                                ; preds = %2
  tail call void @BN_BLINDING_free(ptr noundef nonnull %4) #3
  store ptr null, ptr %3, align 8, !tbaa !30
  %6 = getelementptr inbounds nuw i8, ptr %0, i64 164
  %7 = load i32, ptr %6, align 4, !tbaa !31
  %8 = and i32 %7, -137
  %9 = or disjoint i32 %8, 128
  store i32 %9, ptr %6, align 4, !tbaa !31
  br label %10

10:                                               ; preds = %5, %2
  %11 = tail call ptr @RSA_setup_blinding(ptr noundef nonnull %0, ptr noundef %1)
  store ptr %11, ptr %3, align 8, !tbaa !30
  %12 = icmp eq ptr %11, null
  br i1 %12, label %18, label %13

13:                                               ; preds = %10
  %14 = getelementptr inbounds nuw i8, ptr %0, i64 164
  %15 = load i32, ptr %14, align 4, !tbaa !31
  %16 = and i32 %15, -137
  %17 = or disjoint i32 %16, 8
  store i32 %17, ptr %14, align 4, !tbaa !31
  br label %18

18:                                               ; preds = %10, %13
  %.0 = phi i32 [ 0, %10 ], [ 1, %13 ]
  ret i32 %.0
}